; Function Attrs: nounwind uwtable
define ptr @l_Lean_Core_checkMaxHeartbeats___boxed(ptr noundef %0, ptr noundef %1, ptr noundef %2, ptr noundef %3) local_unnamed_addr #1 {
  %5 = getelementptr inbounds nuw i8, ptr %1, i64 80
  %6 = load ptr, ptr %5, align 8, !tbaa !9
  %7 = load ptr, ptr @l_Lean_initFn____x40_Lean_CoreM___hyg_80____closed__2, align 8, !tbaa !9
  %8 = tail call ptr @l_Lean_Core_checkMaxHeartbeatsCore(ptr noundef %0, ptr noundef %7, ptr noundef %6, ptr noundef readonly %1, ptr readnone poison, ptr noundef %3)
  %9 = ptrtoint ptr %2 to i64
  %10 = and i64 %9, 1
  %.not = icmp eq i64 %10, 0
  br i1 %.not, label %11, label %lean_dec.exit7

11:                                               ; preds = %4
  %12 = load i32, ptr %2, align 4, !tbaa !4
  %13 = icmp sgt i32 %12, 1
  br i1 %13, label %14, label %16, !prof !11

14:                                               ; preds = %11
  %15 = add nsw i32 %12, -1
  store i32 %15, ptr %2, align 4, !tbaa !4
  br label %lean_dec.exit7

16:                                               ; preds = %11
  %.not.i = icmp eq i32 %12, 0
  br i1 %.not.i, label %lean_dec.exit7, label %17

17:                                               ; preds = %16
  tail call void @lean_dec_ref_cold(ptr noundef nonnull %2) #7
  br label %lean_dec.exit7

lean_dec.exit7:                                   ; preds = %17, %16, %14, %4
  %18 = ptrtoint ptr %1 to i64
  %19 = and i64 %18, 1
  %.not10 = icmp eq i64 %19, 0
  br i1 %.not10, label %20, label %lean_dec.exit

20:                                               ; preds = %lean_dec.exit7
  %21 = load i32, ptr %1, align 4, !tbaa !4
  %22 = icmp sgt i32 %21, 1
  br i1 %22, label %23, label %25, !prof !11

23:                                               ; preds = %20
  %24 = add nsw i32 %21, -1
  store i32 %24, ptr %1, align 4, !tbaa !4
  br label %lean_dec.exit

25:                                               ; preds = %20
  %.not.i8 = icmp eq i32 %21, 0
  br i1 %.not.i8, label %lean_dec.exit, label %26

26:                                               ; preds = %25
  tail call void @lean_dec_ref_cold(ptr noundef nonnull %1) #7
  br label %lean_dec.exit

lean_dec.exit:                                    ; preds = %26, %25, %23, %lean_dec.exit7
  ret ptr %8
}